target datalayout = "e-m:e-p270:32:32-p271:32:32-p272:64:64-i64:64-i128:128-f80:128-n8:16:32:64-S128"
target triple = "x86_64-unknown-linux-gnu"

@tcg_allowed = external global i8, align 1

; Function Attrs: nounwind sspstrong uwtable
define dso_local void @riscv_cpu_finalize_features(ptr noundef %cpu, ptr noundef %errp) #0 {
entry:
  %cpu.addr = alloca ptr, align 8
  %errp.addr = alloca ptr, align 8
  %local_err = alloca ptr, align 8
  store ptr %cpu, ptr %cpu.addr, align 8
  store ptr %errp, ptr %errp.addr, align 8
  store ptr null, ptr %local_err, align 8
  %0 = load i8, ptr @tcg_allowed, align 1
  %tobool = trunc i8 %0 to i1
  br i1 %tobool, label %if.then, label %if.end2

if.then:                                          ; preds = %entry
  %1 = load ptr, ptr %cpu.addr, align 8
  call void @riscv_tcg_cpu_finalize_features(ptr noundef %1, ptr noundef %local_err)
  %2 = load ptr, ptr %local_err, align 8
  %cmp = icmp ne ptr %2, null
  br i1 %cmp, label %if.then1, label %if.end

if.then1:                                         ; preds = %if.then
  %3 = load ptr, ptr %errp.addr, align 8
  %4 = load ptr, ptr %local_err, align 8
  call void @error_propagate(ptr noundef %3, ptr noundef %4)
  br label %if.end2

if.end:                                           ; preds = %if.then
  br label %if.end2

if.end2:                                          ; preds = %if.end, %if.then1, %entry
  ret void
}