; Function Attrs: nounwind sspstrong uwtable
define dso_local void @riscv_cpu_finalize_features(ptr noundef %cpu, ptr noundef %errp) local_unnamed_addr #3 {
entry:
  %local_err = alloca ptr, align 8
  store ptr null, ptr %local_err, align 8
  %0 = load i8, ptr @tcg_allowed, align 1
  %tobool = trunc i8 %0 to i1
  br i1 %tobool, label %if.then, label %if.end2

if.then:                                          ; preds = %entry
  call void @riscv_tcg_cpu_finalize_features(ptr noundef %cpu, ptr noundef nonnull %local_err) #14
  %1 = load ptr, ptr %local_err, align 8
  %cmp.not = icmp eq ptr %1, null
  br i1 %cmp.not, label %if.end2, label %if.then1

if.then1:                                         ; preds = %if.then
  call void @error_propagate(ptr noundef %errp, ptr noundef nonnull %1) #14
  br label %if.end2

if.end2:                                          ; preds = %if.then, %if.then1, %entry
  ret void
}